; Function Attrs: mustprogress nofree norecurse nosync nounwind willreturn memory(write, argmem: readwrite, inaccessiblemem: none) uwtable
define dso_local void @_ZN22b3GpuRigidBodyPipeline10setGravityEPKf(ptr nocapture noundef nonnull readonly align 8 dereferenceable(16) %this, ptr nocapture noundef readonly %grav) local_unnamed_addr #13 align 2 {
entry:
  %m_data = getelementptr inbounds i8, ptr %this, i64 8
  %0 = load ptr, ptr %m_data, align 8
  %m_gravity = getelementptr inbounds i8, ptr %0, i64 240
  %arrayidx2 = getelementptr inbounds i8, ptr %grav, i64 4
  %arrayidx3 = getelementptr inbounds i8, ptr %grav, i64 8
  %1 = load float, ptr %grav, align 4
  store float %1, ptr %m_gravity, align 16
  %2 = load float, ptr %arrayidx2, align 4
  %arrayidx2.i = getelementptr inbounds i8, ptr %0, i64 244
  store float %2, ptr %arrayidx2.i, align 4
  %3 = load float, ptr %arrayidx3, align 4
  %arrayidx3.i = getelementptr inbounds i8, ptr %0, i64 248
  store float %3, ptr %arrayidx3.i, align 8
  %arrayidx4.i = getelementptr inbounds i8, ptr %0, i64 252
  store float 0.000000e+00, ptr %arrayidx4.i, align 4
  ret void
}